; Function Attrs: mustprogress ssp uwtable
define void @_ZN6open3d13visualization29VisualizerWithCustomAnimation17MouseMoveCallbackEP10GLFWwindowdd(ptr noundef nonnull align 8 dereferenceable(656) %0, ptr noundef %1, double noundef %2, double noundef %3) unnamed_addr #2 align 2 {
  %5 = getelementptr inbounds nuw i8, ptr %0, i64 192
  %6 = load ptr, ptr %5, align 8, !tbaa !71
  %7 = getelementptr inbounds nuw i8, ptr %6, i64 728
  %8 = load i32, ptr %7, align 8, !tbaa !107
  %.off = add i32 %8, -1
  %switch = icmp ult i32 %.off, 2
  br i1 %switch, label %10, label %9

9:                                                ; preds = %4
  tail call void @_ZN6open3d13visualization10Visualizer17MouseMoveCallbackEP10GLFWwindowdd(ptr noundef nonnull align 8 dereferenceable(456) %0, ptr noundef %1, double noundef %2, double noundef %3)
  br label %10

10:                                               ; preds = %4, %9
  ret void
}